target datalayout = "e-m:e-p270:32:32-p271:32:32-p272:64:64-i64:64-i128:128-f80:128-n8:16:32:64-S128"
target triple = "x86_64-pc-linux-gnu"

; Function Attrs: nounwind uwtable
define internal i32 @ssl_security_cert_sig(ptr noundef %0, ptr noundef %1, ptr noundef %2, i32 noundef %3) #1 {
  %5 = alloca i32, align 4
  %6 = alloca ptr, align 8
  %7 = alloca ptr, align 8
  %8 = alloca ptr, align 8
  %9 = alloca i32, align 4
  %10 = alloca i32, align 4
  %11 = alloca i32, align 4
  %12 = alloca i32, align 4
  %13 = alloca i32, align 4
  store ptr %0, ptr %6, align 8, !tbaa !25
  store ptr %1, ptr %7, align 8, !tbaa !80
  store ptr %2, ptr %8, align 8, !tbaa !334
  store i32 %3, ptr %9, align 4, !tbaa !128
  call void @llvm.lifetime.start.p0(i64 4, ptr %10) #8
  call void @llvm.lifetime.start.p0(i64 4, ptr %11) #8
  call void @llvm.lifetime.start.p0(i64 4, ptr %12) #8
  %14 = load ptr, ptr %8, align 8, !tbaa !334
  %15 = call i32 @X509_get_extension_flags(ptr noundef %14)
  %16 = and i32 %15, 8192
  %17 = icmp ne i32 %16, 0
  br i1 %17, label %18, label %19

18:                                               ; preds = %4
  store i32 1, ptr %5, align 4
  store i32 1, ptr %13, align 4
  br label %46

19:                                               ; preds = %4
  %20 = load ptr, ptr %8, align 8, !tbaa !334
  %21 = call i32 @X509_get_signature_info(ptr noundef %20, ptr noundef %11, ptr noundef %12, ptr noundef %10, ptr noundef null)
  %22 = icmp ne i32 %21, 0
  br i1 %22, label %24, label %23

23:                                               ; preds = %19
  store i32 -1, ptr %10, align 4, !tbaa !128
  br label %24

24:                                               ; preds = %23, %19
  %25 = load i32, ptr %11, align 4, !tbaa !128
  %26 = icmp eq i32 %25, 0
  br i1 %26, label %27, label %29

27:                                               ; preds = %24
  %28 = load i32, ptr %12, align 4, !tbaa !128
  store i32 %28, ptr %11, align 4, !tbaa !128
  br label %29

29:                                               ; preds = %27, %24
  %30 = load ptr, ptr %6, align 8, !tbaa !25
  %31 = icmp ne ptr %30, null
  br i1 %31, label %32, label %39

32:                                               ; preds = %29
  %33 = load ptr, ptr %6, align 8, !tbaa !25
  %34 = load i32, ptr %9, align 4, !tbaa !128
  %35 = load i32, ptr %10, align 4, !tbaa !128
  %36 = load i32, ptr %11, align 4, !tbaa !128
  %37 = load ptr, ptr %8, align 8, !tbaa !334
  %38 = call i32 @ssl_security(ptr noundef %33, i32 noundef %34, i32 noundef %35, i32 noundef %36, ptr noundef %37)
  store i32 %38, ptr %5, align 4
  store i32 1, ptr %13, align 4
  br label %46

39:                                               ; preds = %29
  %40 = load ptr, ptr %7, align 8, !tbaa !80
  %41 = load i32, ptr %9, align 4, !tbaa !128
  %42 = load i32, ptr %10, align 4, !tbaa !128
  %43 = load i32, ptr %11, align 4, !tbaa !128
  %44 = load ptr, ptr %8, align 8, !tbaa !334
  %45 = call i32 @ssl_ctx_security(ptr noundef %40, i32 noundef %41, i32 noundef %42, i32 noundef %43, ptr noundef %44)
  store i32 %45, ptr %5, align 4
  store i32 1, ptr %13, align 4
  br label %46

46:                                               ; preds = %39, %32, %18
  call void @llvm.lifetime.end.p0(i64 4, ptr %12) #8
  call void @llvm.lifetime.end.p0(i64 4, ptr %11) #8
  call void @llvm.lifetime.end.p0(i64 4, ptr %10) #8
  %47 = load i32, ptr %5, align 4
  ret i32 %47
}

; Function Attrs: nounwind uwtable
define internal i32 @ssl_security_cert_key(ptr noundef %0, ptr noundef %1, ptr noundef %2, i32 noundef %3) #1 {
  %5 = alloca i32, align 4
  %6 = alloca ptr, align 8
  %7 = alloca ptr, align 8
  %8 = alloca ptr, align 8
  %9 = alloca i32, align 4
  %10 = alloca i32, align 4
  %11 = alloca ptr, align 8
  %12 = alloca i32, align 4
  store ptr %0, ptr %6, align 8, !tbaa !25
  store ptr %1, ptr %7, align 8, !tbaa !80
  store ptr %2, ptr %8, align 8, !tbaa !334
  store i32 %3, ptr %9, align 4, !tbaa !128
  call void @llvm.lifetime.start.p0(i64 4, ptr %10) #8
  store i32 -1, ptr %10, align 4, !tbaa !128
  call void @llvm.lifetime.start.p0(i64 8, ptr %11) #8
  %13 = load ptr, ptr %8, align 8, !tbaa !334
  %14 = call ptr @X509_get0_pubkey(ptr noundef %13)
  store ptr %14, ptr %11, align 8, !tbaa !202
  %15 = load ptr, ptr %11, align 8, !tbaa !202
  %16 = icmp ne ptr %15, null
  br i1 %16, label %17, label %20

17:                                               ; preds = %4
  %18 = load ptr, ptr %11, align 8, !tbaa !202
  %19 = call i32 @EVP_PKEY_get_security_bits(ptr noundef %18)
  store i32 %19, ptr %10, align 4, !tbaa !128
  br label %20

20:                                               ; preds = %17, %4
  %21 = load ptr, ptr %6, align 8, !tbaa !25
  %22 = icmp ne ptr %21, null
  br i1 %22, label %23, label %29

23:                                               ; preds = %20
  %24 = load ptr, ptr %6, align 8, !tbaa !25
  %25 = load i32, ptr %9, align 4, !tbaa !128
  %26 = load i32, ptr %10, align 4, !tbaa !128
  %27 = load ptr, ptr %8, align 8, !tbaa !334
  %28 = call i32 @ssl_security(ptr noundef %24, i32 noundef %25, i32 noundef %26, i32 noundef 0, ptr noundef %27)
  store i32 %28, ptr %5, align 4
  store i32 1, ptr %12, align 4
  br label %35

29:                                               ; preds = %20
  %30 = load ptr, ptr %7, align 8, !tbaa !80
  %31 = load i32, ptr %9, align 4, !tbaa !128
  %32 = load i32, ptr %10, align 4, !tbaa !128
  %33 = load ptr, ptr %8, align 8, !tbaa !334
  %34 = call i32 @ssl_ctx_security(ptr noundef %30, i32 noundef %31, i32 noundef %32, i32 noundef 0, ptr noundef %33)
  store i32 %34, ptr %5, align 4
  store i32 1, ptr %12, align 4
  br label %35

35:                                               ; preds = %29, %23
  call void @llvm.lifetime.end.p0(i64 8, ptr %11) #8
  call void @llvm.lifetime.end.p0(i64 4, ptr %10) #8
  %36 = load i32, ptr %5, align 4
  ret i32 %36
}

; Function Attrs: nounwind uwtable
define i32 @ssl_security_cert(ptr noundef %0, ptr noundef %1, ptr noundef %2, i32 noundef %3, i32 noundef %4) #1 {
  %6 = alloca i32, align 4
  %7 = alloca ptr, align 8
  %8 = alloca ptr, align 8
  %9 = alloca ptr, align 8
  %10 = alloca i32, align 4
  %11 = alloca i32, align 4
  store ptr %0, ptr %7, align 8, !tbaa !25
  store ptr %1, ptr %8, align 8, !tbaa !80
  store ptr %2, ptr %9, align 8, !tbaa !334
  store i32 %3, ptr %10, align 4, !tbaa !128
  store i32 %4, ptr %11, align 4, !tbaa !128
  %12 = load i32, ptr %10, align 4, !tbaa !128
  %13 = icmp ne i32 %12, 0
  br i1 %13, label %14, label %15

14:                                               ; preds = %5
  store i32 4096, ptr %10, align 4, !tbaa !128
  br label %15

15:                                               ; preds = %14, %5
  %16 = load i32, ptr %11, align 4, !tbaa !128
  %17 = icmp ne i32 %16, 0
  br i1 %17, label %18, label %28

18:                                               ; preds = %15
  %19 = load ptr, ptr %7, align 8, !tbaa !25
  %20 = load ptr, ptr %8, align 8, !tbaa !80
  %21 = load ptr, ptr %9, align 8, !tbaa !334
  %22 = load i32, ptr %10, align 4, !tbaa !128
  %23 = or i32 393232, %22
  %24 = call i32 @ssl_security_cert_key(ptr noundef %19, ptr noundef %20, ptr noundef %21, i32 noundef %23)
  %25 = icmp ne i32 %24, 0
  br i1 %25, label %27, label %26

26:                                               ; preds = %18
  store i32 399, ptr %6, align 4
  br label %48

27:                                               ; preds = %18
  br label %38

28:                                               ; preds = %15
  %29 = load ptr, ptr %7, align 8, !tbaa !25
  %30 = load ptr, ptr %8, align 8, !tbaa !80
  %31 = load ptr, ptr %9, align 8, !tbaa !334
  %32 = load i32, ptr %10, align 4, !tbaa !128
  %33 = or i32 393233, %32
  %34 = call i32 @ssl_security_cert_key(ptr noundef %29, ptr noundef %30, ptr noundef %31, i32 noundef %33)
  %35 = icmp ne i32 %34, 0
  br i1 %35, label %37, label %36

36:                                               ; preds = %28
  store i32 397, ptr %6, align 4
  br label %48

37:                                               ; preds = %28
  br label %38

38:                                               ; preds = %37, %27
  %39 = load ptr, ptr %7, align 8, !tbaa !25
  %40 = load ptr, ptr %8, align 8, !tbaa !80
  %41 = load ptr, ptr %9, align 8, !tbaa !334
  %42 = load i32, ptr %10, align 4, !tbaa !128
  %43 = or i32 393234, %42
  %44 = call i32 @ssl_security_cert_sig(ptr noundef %39, ptr noundef %40, ptr noundef %41, i32 noundef %43)
  %45 = icmp ne i32 %44, 0
  br i1 %45, label %47, label %46

46:                                               ; preds = %38
  store i32 398, ptr %6, align 4
  br label %48

47:                                               ; preds = %38
  store i32 1, ptr %6, align 4
  br label %48

48:                                               ; preds = %47, %46, %36, %26
  %49 = load i32, ptr %6, align 4
  ret i32 %49
}