; Function Attrs: nounwind uwtable
define range(i32 1, 400) i32 @ssl_security_cert(ptr noundef %0, ptr noundef %1, ptr noundef %2, i32 noundef %3, i32 noundef %4) local_unnamed_addr #2 {
  %6 = alloca i32, align 4
  %7 = alloca i32, align 4
  %8 = alloca i32, align 4
  %.not = icmp eq i32 %3, 0
  %spec.store.select = select i1 %.not, i32 0, i32 4096
  %.not14 = icmp eq i32 %4, 0
  %9 = tail call ptr @X509_get0_pubkey(ptr noundef %2) #14
  %.not.i18 = icmp eq ptr %9, null
  br i1 %.not14, label %19, label %10

10:                                               ; preds = %5
  %11 = or disjoint i32 %spec.store.select, 393232
  br i1 %.not.i18, label %14, label %12

12:                                               ; preds = %10
  %13 = tail call i32 @EVP_PKEY_get_security_bits(ptr noundef nonnull %9) #14
  br label %14

14:                                               ; preds = %12, %10
  %.012.i = phi i32 [ %13, %12 ], [ -1, %10 ]
  %.not15.i = icmp eq ptr %0, null
  br i1 %.not15.i, label %17, label %15

15:                                               ; preds = %14
  %16 = tail call i32 @ssl_security(ptr noundef nonnull %0, i32 noundef range(i32 393232, 0) %11, i32 noundef %.012.i, i32 noundef 0, ptr noundef %2) #14
  br label %ssl_security_cert_key.exit

17:                                               ; preds = %14
  %18 = tail call i32 @ssl_ctx_security(ptr noundef %1, i32 noundef range(i32 393232, 0) %11, i32 noundef %.012.i, i32 noundef 0, ptr noundef %2) #14
  br label %ssl_security_cert_key.exit

ssl_security_cert_key.exit:                       ; preds = %15, %17
  %.0.i = phi i32 [ %16, %15 ], [ %18, %17 ]
  %.not16 = icmp eq i32 %.0.i, 0
  br i1 %.not16, label %47, label %28

19:                                               ; preds = %5
  %20 = or disjoint i32 %spec.store.select, 393233
  br i1 %.not.i18, label %23, label %21

21:                                               ; preds = %19
  %22 = tail call i32 @EVP_PKEY_get_security_bits(ptr noundef nonnull %9) #14
  br label %23

23:                                               ; preds = %21, %19
  %.012.i19 = phi i32 [ %22, %21 ], [ -1, %19 ]
  %.not15.i20 = icmp eq ptr %0, null
  br i1 %.not15.i20, label %26, label %24

24:                                               ; preds = %23
  %25 = tail call i32 @ssl_security(ptr noundef nonnull %0, i32 noundef range(i32 393232, 0) %20, i32 noundef %.012.i19, i32 noundef 0, ptr noundef %2) #14
  br label %ssl_security_cert_key.exit22

26:                                               ; preds = %23
  %27 = tail call i32 @ssl_ctx_security(ptr noundef %1, i32 noundef range(i32 393232, 0) %20, i32 noundef %.012.i19, i32 noundef 0, ptr noundef %2) #14
  br label %ssl_security_cert_key.exit22

ssl_security_cert_key.exit22:                     ; preds = %24, %26
  %.0.i21 = phi i32 [ %25, %24 ], [ %27, %26 ]
  %.not15 = icmp eq i32 %.0.i21, 0
  br i1 %.not15, label %47, label %28

28:                                               ; preds = %ssl_security_cert_key.exit22, %ssl_security_cert_key.exit
  %29 = or disjoint i32 %spec.store.select, 393234
  call void @llvm.lifetime.start.p0(i64 4, ptr nonnull %6) #14
  call void @llvm.lifetime.start.p0(i64 4, ptr nonnull %7) #14
  call void @llvm.lifetime.start.p0(i64 4, ptr nonnull %8) #14
  %30 = tail call i32 @X509_get_extension_flags(ptr noundef %2) #14
  %31 = and i32 %30, 8192
  %.not.i23 = icmp eq i32 %31, 0
  br i1 %.not.i23, label %32, label %ssl_security_cert_sig.exit.thread

ssl_security_cert_sig.exit.thread:                ; preds = %28
  call void @llvm.lifetime.end.p0(i64 4, ptr nonnull %8) #14
  call void @llvm.lifetime.end.p0(i64 4, ptr nonnull %7) #14
  call void @llvm.lifetime.end.p0(i64 4, ptr nonnull %6) #14
  br label %47

32:                                               ; preds = %28
  %33 = call i32 @X509_get_signature_info(ptr noundef %2, ptr noundef nonnull %7, ptr noundef nonnull %8, ptr noundef nonnull %6, ptr noundef null) #14
  %.not10.i = icmp eq i32 %33, 0
  br i1 %.not10.i, label %34, label %35

34:                                               ; preds = %32
  store i32 -1, ptr %6, align 4, !tbaa !135
  br label %35

35:                                               ; preds = %34, %32
  %36 = load i32, ptr %7, align 4, !tbaa !135
  %37 = icmp eq i32 %36, 0
  br i1 %37, label %38, label %40

38:                                               ; preds = %35
  %39 = load i32, ptr %8, align 4, !tbaa !135
  store i32 %39, ptr %7, align 4, !tbaa !135
  br label %40

40:                                               ; preds = %38, %35
  %41 = phi i32 [ %39, %38 ], [ %36, %35 ]
  %.not11.i = icmp eq ptr %0, null
  %42 = load i32, ptr %6, align 4, !tbaa !135
  br i1 %.not11.i, label %45, label %43

43:                                               ; preds = %40
  %44 = call i32 @ssl_security(ptr noundef nonnull %0, i32 noundef range(i32 393234, 0) %29, i32 noundef %42, i32 noundef %41, ptr noundef %2) #14
  br label %ssl_security_cert_sig.exit

45:                                               ; preds = %40
  %46 = call i32 @ssl_ctx_security(ptr noundef %1, i32 noundef range(i32 393234, 0) %29, i32 noundef %42, i32 noundef %41, ptr noundef %2) #14
  br label %ssl_security_cert_sig.exit

ssl_security_cert_sig.exit:                       ; preds = %43, %45
  %.0.i24 = phi i32 [ %44, %43 ], [ %46, %45 ]
  call void @llvm.lifetime.end.p0(i64 4, ptr nonnull %8) #14
  call void @llvm.lifetime.end.p0(i64 4, ptr nonnull %7) #14
  call void @llvm.lifetime.end.p0(i64 4, ptr nonnull %6) #14
  %.0.i24.fr = freeze i32 %.0.i24
  %.not17 = icmp eq i32 %.0.i24.fr, 0
  %spec.select = select i1 %.not17, i32 398, i32 1
  br label %47

47:                                               ; preds = %ssl_security_cert_sig.exit, %ssl_security_cert_sig.exit.thread, %ssl_security_cert_key.exit22, %ssl_security_cert_key.exit
  %.0 = phi i32 [ 399, %ssl_security_cert_key.exit ], [ 397, %ssl_security_cert_key.exit22 ], [ 1, %ssl_security_cert_sig.exit.thread ], [ %spec.select, %ssl_security_cert_sig.exit ]
  ret i32 %.0
}